target datalayout = "e-m:e-p270:32:32-p271:32:32-p272:64:64-i64:64-i128:128-f80:128-n8:16:32:64-S128"
target triple = "x86_64-pc-linux-gnu"

%struct.ItemPointerData = type { %struct.BlockIdData, i16 }
%struct.BlockIdData = type { i16, i16 }
%struct.BTScanOpaqueData = type { i8, i32, ptr, i32, i8, i8, i8, ptr, ptr, ptr, ptr, i32, ptr, ptr, i32, %struct.BTScanPosData, %struct.BTScanPosData }
%struct.BTScanPosData = type { i32, i32, i32, i32, i64, i32, i32, i8, i8, i32, i32, i32, [1358 x %struct.BTScanPosItem] }
%struct.BTScanPosItem = type { %struct.ItemPointerData, i16, i16 }
%struct.IndexScanDescData = type { ptr, ptr, ptr, i32, i32, ptr, ptr, i8, i8, i8, i8, i8, ptr, ptr, ptr, ptr, ptr, %struct.ItemPointerData, i8, ptr, i8, ptr, ptr, i8, ptr }

; Function Attrs: inlinehint nounwind uwtable
define internal zeroext i1 @BufferIsValid(i32 noundef %0) #2 {
  %2 = alloca i32, align 4
  store i32 %0, ptr %2, align 4
  %3 = load i32, ptr %2, align 4
  %4 = icmp ne i32 %3, 0
  ret i1 %4
}

; Function Attrs: inlinehint nounwind uwtable
define internal zeroext i1 @BlockNumberIsValid(i32 noundef %0) #2 {
  %2 = alloca i32, align 4
  store i32 %0, ptr %2, align 4
  %3 = load i32, ptr %2, align 4
  %4 = icmp ne i32 %3, -1
  ret i1 %4
}

; Function Attrs: nounwind uwtable
define dso_local void @btrestrpos(ptr noundef %0) #0 {
  %2 = alloca ptr, align 8
  %3 = alloca ptr, align 8
  store ptr %0, ptr %2, align 8
  call void @llvm.lifetime.start.p0(i64 8, ptr %3) #8
  %4 = load ptr, ptr %2, align 8
  %5 = getelementptr inbounds nuw %struct.IndexScanDescData, ptr %4, i32 0, i32 12
  %6 = load ptr, ptr %5, align 8
  store ptr %6, ptr %3, align 8
  %7 = load ptr, ptr %3, align 8
  %8 = getelementptr inbounds nuw %struct.BTScanOpaqueData, ptr %7, i32 0, i32 14
  %9 = load i32, ptr %8, align 8
  %10 = icmp sge i32 %9, 0
  br i1 %10, label %11, label %18

11:                                               ; preds = %1
  %12 = load ptr, ptr %3, align 8
  %13 = getelementptr inbounds nuw %struct.BTScanOpaqueData, ptr %12, i32 0, i32 14
  %14 = load i32, ptr %13, align 8
  %15 = load ptr, ptr %3, align 8
  %16 = getelementptr inbounds nuw %struct.BTScanOpaqueData, ptr %15, i32 0, i32 15
  %17 = getelementptr inbounds nuw %struct.BTScanPosData, ptr %16, i32 0, i32 11
  store i32 %14, ptr %17, align 4
  br label %122

18:                                               ; preds = %1
  %19 = load ptr, ptr %3, align 8
  %20 = getelementptr inbounds nuw %struct.BTScanOpaqueData, ptr %19, i32 0, i32 15
  %21 = getelementptr inbounds nuw %struct.BTScanPosData, ptr %20, i32 0, i32 1
  %22 = load i32, ptr %21, align 4
  %23 = call zeroext i1 @BlockNumberIsValid(i32 noundef %22)
  br i1 %23, label %24, label %52

24:                                               ; preds = %18
  %25 = load ptr, ptr %3, align 8
  %26 = getelementptr inbounds nuw %struct.BTScanOpaqueData, ptr %25, i32 0, i32 11
  %27 = load i32, ptr %26, align 8
  %28 = icmp sgt i32 %27, 0
  br i1 %28, label %29, label %31

29:                                               ; preds = %24
  %30 = load ptr, ptr %2, align 8
  call void @_bt_killitems(ptr noundef %30)
  br label %31

31:                                               ; preds = %29, %24
  br label %32

32:                                               ; preds = %31
  %33 = load ptr, ptr %3, align 8
  %34 = getelementptr inbounds nuw %struct.BTScanOpaqueData, ptr %33, i32 0, i32 15
  %35 = getelementptr inbounds nuw %struct.BTScanPosData, ptr %34, i32 0, i32 0
  %36 = load i32, ptr %35, align 8
  %37 = call zeroext i1 @BufferIsValid(i32 noundef %36)
  br i1 %37, label %38, label %49

38:                                               ; preds = %32
  br label %39

39:                                               ; preds = %38
  %40 = load ptr, ptr %3, align 8
  %41 = getelementptr inbounds nuw %struct.BTScanOpaqueData, ptr %40, i32 0, i32 15
  %42 = getelementptr inbounds nuw %struct.BTScanPosData, ptr %41, i32 0, i32 0
  %43 = load i32, ptr %42, align 8
  call void @ReleaseBuffer(i32 noundef %43)
  %44 = load ptr, ptr %3, align 8
  %45 = getelementptr inbounds nuw %struct.BTScanOpaqueData, ptr %44, i32 0, i32 15
  %46 = getelementptr inbounds nuw %struct.BTScanPosData, ptr %45, i32 0, i32 0
  store i32 0, ptr %46, align 8
  br label %47

47:                                               ; preds = %39
  br label %48

48:                                               ; preds = %47
  br label %49

49:                                               ; preds = %48, %32
  br label %50

50:                                               ; preds = %49
  br label %51

51:                                               ; preds = %50
  br label %52

52:                                               ; preds = %51, %18
  %53 = load ptr, ptr %3, align 8
  %54 = getelementptr inbounds nuw %struct.BTScanOpaqueData, ptr %53, i32 0, i32 16
  %55 = getelementptr inbounds nuw %struct.BTScanPosData, ptr %54, i32 0, i32 1
  %56 = load i32, ptr %55, align 4
  %57 = call zeroext i1 @BlockNumberIsValid(i32 noundef %56)
  br i1 %57, label %58, label %111

58:                                               ; preds = %52
  %59 = load ptr, ptr %3, align 8
  %60 = getelementptr inbounds nuw %struct.BTScanOpaqueData, ptr %59, i32 0, i32 16
  %61 = getelementptr inbounds nuw %struct.BTScanPosData, ptr %60, i32 0, i32 0
  %62 = load i32, ptr %61, align 8
  %63 = call zeroext i1 @BufferIsValid(i32 noundef %62)
  br i1 %63, label %64, label %69

64:                                               ; preds = %58
  %65 = load ptr, ptr %3, align 8
  %66 = getelementptr inbounds nuw %struct.BTScanOpaqueData, ptr %65, i32 0, i32 16
  %67 = getelementptr inbounds nuw %struct.BTScanPosData, ptr %66, i32 0, i32 0
  %68 = load i32, ptr %67, align 8
  call void @IncrBufferRefCount(i32 noundef %68)
  br label %69

69:                                               ; preds = %64, %58
  %70 = load ptr, ptr %3, align 8
  %71 = getelementptr inbounds nuw %struct.BTScanOpaqueData, ptr %70, i32 0, i32 15
  %72 = load ptr, ptr %3, align 8
  %73 = getelementptr inbounds nuw %struct.BTScanOpaqueData, ptr %72, i32 0, i32 16
  %74 = load ptr, ptr %3, align 8
  %75 = getelementptr inbounds nuw %struct.BTScanOpaqueData, ptr %74, i32 0, i32 16
  %76 = getelementptr inbounds nuw %struct.BTScanPosData, ptr %75, i32 0, i32 10
  %77 = load i32, ptr %76, align 8
  %78 = sext i32 %77 to i64
  %79 = mul i64 %78, 10
  %80 = add i64 58, %79
  call void @llvm.memcpy.p0.p0.i64(ptr align 8 %71, ptr align 8 %73, i64 %80, i1 false)
  %81 = load ptr, ptr %3, align 8
  %82 = getelementptr inbounds nuw %struct.BTScanOpaqueData, ptr %81, i32 0, i32 12
  %83 = load ptr, ptr %82, align 8
  %84 = icmp ne ptr %83, null
  br i1 %84, label %85, label %97

85:                                               ; preds = %69
  %86 = load ptr, ptr %3, align 8
  %87 = getelementptr inbounds nuw %struct.BTScanOpaqueData, ptr %86, i32 0, i32 12
  %88 = load ptr, ptr %87, align 8
  %89 = load ptr, ptr %3, align 8
  %90 = getelementptr inbounds nuw %struct.BTScanOpaqueData, ptr %89, i32 0, i32 13
  %91 = load ptr, ptr %90, align 8
  %92 = load ptr, ptr %3, align 8
  %93 = getelementptr inbounds nuw %struct.BTScanOpaqueData, ptr %92, i32 0, i32 16
  %94 = getelementptr inbounds nuw %struct.BTScanPosData, ptr %93, i32 0, i32 6
  %95 = load i32, ptr %94, align 4
  %96 = sext i32 %95 to i64
  call void @llvm.memcpy.p0.p0.i64(ptr align 1 %88, ptr align 1 %91, i64 %96, i1 false)
  br label %97

97:                                               ; preds = %85, %69
  %98 = load ptr, ptr %3, align 8
  %99 = getelementptr inbounds nuw %struct.BTScanOpaqueData, ptr %98, i32 0, i32 3
  %100 = load i32, ptr %99, align 8
  %101 = icmp ne i32 %100, 0
  br i1 %101, label %102, label %110

102:                                              ; preds = %97
  %103 = load ptr, ptr %2, align 8
  %104 = load ptr, ptr %3, align 8
  %105 = getelementptr inbounds nuw %struct.BTScanOpaqueData, ptr %104, i32 0, i32 15
  %106 = getelementptr inbounds nuw %struct.BTScanPosData, ptr %105, i32 0, i32 5
  %107 = load i32, ptr %106, align 8
  call void @_bt_start_array_keys(ptr noundef %103, i32 noundef %107)
  %108 = load ptr, ptr %3, align 8
  %109 = getelementptr inbounds nuw %struct.BTScanOpaqueData, ptr %108, i32 0, i32 4
  store i8 0, ptr %109, align 4
  br label %110

110:                                              ; preds = %102, %97
  br label %121

111:                                              ; preds = %52
  br label %112

112:                                              ; preds = %111
  %113 = load ptr, ptr %3, align 8
  %114 = getelementptr inbounds nuw %struct.BTScanOpaqueData, ptr %113, i32 0, i32 15
  %115 = getelementptr inbounds nuw %struct.BTScanPosData, ptr %114, i32 0, i32 0
  store i32 0, ptr %115, align 8
  %116 = load ptr, ptr %3, align 8
  %117 = getelementptr inbounds nuw %struct.BTScanOpaqueData, ptr %116, i32 0, i32 15
  %118 = getelementptr inbounds nuw %struct.BTScanPosData, ptr %117, i32 0, i32 1
  store i32 -1, ptr %118, align 4
  br label %119

119:                                              ; preds = %112
  br label %120

120:                                              ; preds = %119
  br label %121

121:                                              ; preds = %120, %110
  br label %122

122:                                              ; preds = %121, %11
  call void @llvm.lifetime.end.p0(i64 8, ptr %3) #8
  ret void
}