; Function Attrs: nounwind uwtable
define dso_local void @btrestrpos(ptr noundef %0) #0 {
  %2 = getelementptr inbounds nuw i8, ptr %0, i64 56
  %3 = load ptr, ptr %2, align 8
  %4 = getelementptr inbounds nuw i8, ptr %3, i64 80
  %5 = load i32, ptr %4, align 8
  %6 = icmp sgt i32 %5, -1
  br i1 %6, label %7, label %9

7:                                                ; preds = %1
  %8 = getelementptr inbounds nuw i8, ptr %3, i64 132
  store i32 %5, ptr %8, align 4
  br label %50

9:                                                ; preds = %1
  %10 = getelementptr inbounds nuw i8, ptr %3, i64 88
  %11 = getelementptr inbounds nuw i8, ptr %3, i64 92
  %12 = load i32, ptr %11, align 4
  %.not28 = icmp eq i32 %12, -1
  br i1 %.not28, label %21, label %13

13:                                               ; preds = %9
  %14 = getelementptr inbounds nuw i8, ptr %3, i64 56
  %15 = load i32, ptr %14, align 8
  %16 = icmp sgt i32 %15, 0
  br i1 %16, label %17, label %18

17:                                               ; preds = %13
  tail call void @_bt_killitems(ptr noundef nonnull %0) #8
  br label %18

18:                                               ; preds = %13, %17
  %19 = load i32, ptr %10, align 8
  %.not29 = icmp eq i32 %19, 0
  br i1 %.not29, label %21, label %20

20:                                               ; preds = %18
  tail call void @ReleaseBuffer(i32 noundef %19) #8
  store i32 0, ptr %10, align 8
  br label %21

21:                                               ; preds = %18, %20, %9
  %22 = getelementptr inbounds nuw i8, ptr %3, i64 13720
  %23 = getelementptr inbounds nuw i8, ptr %3, i64 13724
  %24 = load i32, ptr %23, align 4
  %.not30 = icmp eq i32 %24, -1
  br i1 %.not30, label %49, label %25

25:                                               ; preds = %21
  %26 = load i32, ptr %22, align 8
  %.not31 = icmp eq i32 %26, 0
  br i1 %.not31, label %28, label %27

27:                                               ; preds = %25
  tail call void @IncrBufferRefCount(i32 noundef %26) #8
  br label %28

28:                                               ; preds = %27, %25
  %29 = getelementptr inbounds nuw i8, ptr %3, i64 13760
  %30 = load i32, ptr %29, align 8
  %31 = sext i32 %30 to i64
  %32 = mul nsw i64 %31, 10
  %33 = add nsw i64 %32, 58
  tail call void @llvm.memcpy.p0.p0.i64(ptr nonnull align 8 %10, ptr nonnull align 8 %22, i64 %33, i1 false)
  %34 = getelementptr inbounds nuw i8, ptr %3, i64 64
  %35 = load ptr, ptr %34, align 8
  %.not = icmp eq ptr %35, null
  br i1 %.not, label %42, label %36

36:                                               ; preds = %28
  %37 = getelementptr inbounds nuw i8, ptr %3, i64 72
  %38 = load ptr, ptr %37, align 8
  %39 = getelementptr inbounds nuw i8, ptr %3, i64 13748
  %40 = load i32, ptr %39, align 4
  %41 = sext i32 %40 to i64
  tail call void @llvm.memcpy.p0.p0.i64(ptr nonnull align 1 %35, ptr align 1 %38, i64 %41, i1 false)
  br label %42

42:                                               ; preds = %36, %28
  %43 = getelementptr inbounds nuw i8, ptr %3, i64 16
  %44 = load i32, ptr %43, align 8
  %.not27 = icmp eq i32 %44, 0
  br i1 %.not27, label %50, label %45

45:                                               ; preds = %42
  %46 = getelementptr inbounds nuw i8, ptr %3, i64 112
  %47 = load i32, ptr %46, align 8
  tail call void @_bt_start_array_keys(ptr noundef nonnull %0, i32 noundef %47) #8
  %48 = getelementptr inbounds nuw i8, ptr %3, i64 20
  store i8 0, ptr %48, align 4
  br label %50

49:                                               ; preds = %21
  store i32 0, ptr %10, align 8
  store i32 -1, ptr %11, align 4
  br label %50

50:                                               ; preds = %49, %45, %42, %7
  ret void
}